; Function Attrs: nounwind uwtable
define dso_local i32 @_archive_entry_copy_link_l(ptr noundef %0, ptr noundef %1, i64 noundef %2, ptr noundef %3) local_unnamed_addr #0 {
  %5 = getelementptr inbounds nuw i8, ptr %0, i64 424
  %6 = tail call i32 @archive_mstring_copy_mbs_len_l(ptr noundef nonnull %5, ptr noundef %1, i64 noundef %2, ptr noundef %3) #21
  %7 = getelementptr inbounds nuw i8, ptr %0, i64 192
  %8 = load i32, ptr %7, align 8, !tbaa !31
  %9 = and i32 %8, 2
  %10 = icmp eq i32 %9, 0
  br i1 %10, label %11, label %13

11:                                               ; preds = %4
  %12 = or i32 %8, 1
  store i32 %12, ptr %7, align 8, !tbaa !31
  br label %13

13:                                               ; preds = %11, %4
  ret i32 %6
}